target datalayout = "e-m:e-p270:32:32-p271:32:32-p272:64:64-i64:64-i128:128-f80:128-n8:16:32:64-S128"
target triple = "x86_64-pc-linux-gnu"

; Function Attrs: mustprogress nounwind uwtable
define linkonce_odr hidden noundef i32 @_ZN4llvm6detail19LeadingZerosCounterImLm8EE5countEm(i64 noundef %0) #0 comdat align 2 {
  %2 = alloca i32, align 4
  %3 = alloca i64, align 8
  store i64 %0, ptr %3, align 8
  %4 = load i64, ptr %3, align 8
  %5 = icmp eq i64 %4, 0
  br i1 %5, label %6, label %7

6:                                                ; preds = %1
  store i32 64, ptr %2, align 4
  br label %11

7:                                                ; preds = %1
  %8 = load i64, ptr %3, align 8
  %9 = call i64 @llvm.ctlz.i64(i64 %8, i1 true)
  %10 = trunc i64 %9 to i32
  store i32 %10, ptr %2, align 4
  br label %11

11:                                               ; preds = %7, %6
  %12 = load i32, ptr %2, align 4
  ret i32 %12
}

; Function Attrs: mustprogress nounwind uwtable
define linkonce_odr noundef i32 @_ZN4llvm11countl_zeroImEEiT_(i64 noundef %0) #0 comdat {
  %2 = alloca i64, align 8
  store i64 %0, ptr %2, align 8
  %3 = load i64, ptr %2, align 8
  %4 = call noundef i32 @_ZN4llvm6detail19LeadingZerosCounterImLm8EE5countEm(i64 noundef %3)
  ret i32 %4
}

; Function Attrs: mustprogress nounwind uwtable
define linkonce_odr hidden noundef i32 @_ZN4llvm6detail20TrailingZerosCounterImLm8EE5countEm(i64 noundef %0) #0 comdat align 2 {
  %2 = alloca i32, align 4
  %3 = alloca i64, align 8
  store i64 %0, ptr %3, align 8
  %4 = load i64, ptr %3, align 8
  %5 = icmp eq i64 %4, 0
  br i1 %5, label %6, label %7

6:                                                ; preds = %1
  store i32 64, ptr %2, align 4
  br label %11

7:                                                ; preds = %1
  %8 = load i64, ptr %3, align 8
  %9 = call i64 @llvm.cttz.i64(i64 %8, i1 true)
  %10 = trunc i64 %9 to i32
  store i32 %10, ptr %2, align 4
  br label %11

11:                                               ; preds = %7, %6
  %12 = load i32, ptr %2, align 4
  ret i32 %12
}

; Function Attrs: mustprogress nounwind uwtable
define linkonce_odr hidden noundef zeroext i1 @_ZN4llvm9isMask_64Em(i64 noundef %0) #0 comdat {
  %2 = alloca i64, align 8
  store i64 %0, ptr %2, align 8
  %3 = load i64, ptr %2, align 8
  %4 = icmp ne i64 %3, 0
  br i1 %4, label %5, label %11

5:                                                ; preds = %1
  %6 = load i64, ptr %2, align 8
  %7 = add i64 %6, 1
  %8 = load i64, ptr %2, align 8
  %9 = and i64 %7, %8
  %10 = icmp eq i64 %9, 0
  br label %11

11:                                               ; preds = %5, %1
  %12 = phi i1 [ false, %1 ], [ %10, %5 ]
  ret i1 %12
}

; Function Attrs: mustprogress nounwind uwtable
define linkonce_odr noundef i32 @_ZN4llvm10countl_oneImEEiT_(i64 noundef %0) #0 comdat {
  %2 = alloca i64, align 8
  store i64 %0, ptr %2, align 8
  %3 = load i64, ptr %2, align 8
  %4 = xor i64 %3, -1
  %5 = call noundef i32 @_ZN4llvm11countl_zeroImEEiT_(i64 noundef %4)
  ret i32 %5
}

; Function Attrs: mustprogress nounwind uwtable
define linkonce_odr noundef i32 @_ZN4llvm10countr_oneImEEiT_(i64 noundef %0) #0 comdat {
  %2 = alloca i64, align 8
  store i64 %0, ptr %2, align 8
  %3 = load i64, ptr %2, align 8
  %4 = xor i64 %3, -1
  %5 = call noundef i32 @_ZN4llvm11countr_zeroImEEiT_(i64 noundef %4)
  ret i32 %5
}

; Function Attrs: mustprogress nounwind uwtable
define linkonce_odr noundef i32 @_ZN4llvm11countr_zeroImEEiT_(i64 noundef %0) #0 comdat {
  %2 = alloca i64, align 8
  store i64 %0, ptr %2, align 8
  %3 = load i64, ptr %2, align 8
  %4 = call noundef i32 @_ZN4llvm6detail20TrailingZerosCounterImLm8EE5countEm(i64 noundef %3)
  ret i32 %4
}

; Function Attrs: mustprogress nounwind uwtable
define linkonce_odr hidden noundef zeroext i1 @_ZN4llvm16isShiftedMask_64Em(i64 noundef %0) #0 comdat {
  %2 = alloca i64, align 8
  store i64 %0, ptr %2, align 8
  %3 = load i64, ptr %2, align 8
  %4 = icmp ne i64 %3, 0
  br i1 %4, label %5, label %11

5:                                                ; preds = %1
  %6 = load i64, ptr %2, align 8
  %7 = sub i64 %6, 1
  %8 = load i64, ptr %2, align 8
  %9 = or i64 %7, %8
  %10 = call noundef zeroext i1 @_ZN4llvm9isMask_64Em(i64 noundef %9)
  br label %11

11:                                               ; preds = %5, %1
  %12 = phi i1 [ false, %1 ], [ %10, %5 ]
  ret i1 %12
}

; Function Attrs: mustprogress nounwind uwtable
define internal noundef zeroext i1 @_ZN4llvm10AArch64_AML23processLogicalImmediateEmjRm(i64 noundef %0, i32 noundef %1, ptr noundef nonnull align 8 dereferenceable(8) %2) #0 {
  %4 = alloca i1, align 1
  %5 = alloca i64, align 8
  %6 = alloca i32, align 4
  %7 = alloca ptr, align 8
  %8 = alloca i32, align 4
  %9 = alloca i64, align 8
  %10 = alloca i32, align 4
  %11 = alloca i32, align 4
  %12 = alloca i64, align 8
  %13 = alloca i32, align 4
  %14 = alloca i32, align 4
  %15 = alloca i64, align 8
  %16 = alloca i32, align 4
  store i64 %0, ptr %5, align 8
  store i32 %1, ptr %6, align 4
  store ptr %2, ptr %7, align 8
  %17 = load i64, ptr %5, align 8
  %18 = icmp eq i64 %17, 0
  br i1 %18, label %38, label %19

19:                                               ; preds = %3
  %20 = load i64, ptr %5, align 8
  %21 = icmp eq i64 %20, -1
  br i1 %21, label %38, label %22

22:                                               ; preds = %19
  %23 = load i32, ptr %6, align 4
  %24 = icmp ne i32 %23, 64
  br i1 %24, label %25, label %39

25:                                               ; preds = %22
  %26 = load i64, ptr %5, align 8
  %27 = load i32, ptr %6, align 4
  %28 = zext i32 %27 to i64
  %29 = lshr i64 %26, %28
  %30 = icmp ne i64 %29, 0
  br i1 %30, label %38, label %31

31:                                               ; preds = %25
  %32 = load i64, ptr %5, align 8
  %33 = load i32, ptr %6, align 4
  %34 = sub i32 64, %33
  %35 = zext i32 %34 to i64
  %36 = lshr i64 -1, %35
  %37 = icmp eq i64 %32, %36
  br i1 %37, label %38, label %39

38:                                               ; preds = %31, %25, %19, %3
  store i1 false, ptr %4, align 1
  br label %136

39:                                               ; preds = %31, %22
  %40 = load i32, ptr %6, align 4
  store i32 %40, ptr %8, align 4
  br label %41

41:                                               ; preds = %62, %39
  %42 = load i32, ptr %8, align 4
  %43 = udiv i32 %42, 2
  store i32 %43, ptr %8, align 4
  %44 = load i32, ptr %8, align 4
  %45 = zext i32 %44 to i64
  %46 = shl i64 1, %45
  %47 = sub i64 %46, 1
  store i64 %47, ptr %9, align 8
  %48 = load i64, ptr %5, align 8
  %49 = load i64, ptr %9, align 8
  %50 = and i64 %48, %49
  %51 = load i64, ptr %5, align 8
  %52 = load i32, ptr %8, align 4
  %53 = zext i32 %52 to i64
  %54 = lshr i64 %51, %53
  %55 = load i64, ptr %9, align 8
  %56 = and i64 %54, %55
  %57 = icmp ne i64 %50, %56
  br i1 %57, label %58, label %61

58:                                               ; preds = %41
  %59 = load i32, ptr %8, align 4
  %60 = mul i32 %59, 2
  store i32 %60, ptr %8, align 4
  br label %65

61:                                               ; preds = %41
  br label %62

62:                                               ; preds = %61
  %63 = load i32, ptr %8, align 4
  %64 = icmp ugt i32 %63, 2
  br i1 %64, label %41, label %65, !llvm.loop !12

65:                                               ; preds = %62, %58
  %66 = load i32, ptr %8, align 4
  %67 = sub i32 64, %66
  %68 = zext i32 %67 to i64
  %69 = lshr i64 -1, %68
  store i64 %69, ptr %12, align 8
  %70 = load i64, ptr %12, align 8
  %71 = load i64, ptr %5, align 8
  %72 = and i64 %71, %70
  store i64 %72, ptr %5, align 8
  %73 = load i64, ptr %5, align 8
  %74 = call noundef zeroext i1 @_ZN4llvm16isShiftedMask_64Em(i64 noundef %73)
  br i1 %74, label %75, label %83

75:                                               ; preds = %65
  %76 = load i64, ptr %5, align 8
  %77 = call noundef i32 @_ZN4llvm11countr_zeroImEEiT_(i64 noundef %76)
  store i32 %77, ptr %11, align 4
  %78 = load i64, ptr %5, align 8
  %79 = load i32, ptr %11, align 4
  %80 = zext i32 %79 to i64
  %81 = lshr i64 %78, %80
  %82 = call noundef i32 @_ZN4llvm10countr_oneImEEiT_(i64 noundef %81)
  store i32 %82, ptr %10, align 4
  br label %104

83:                                               ; preds = %65
  %84 = load i64, ptr %12, align 8
  %85 = xor i64 %84, -1
  %86 = load i64, ptr %5, align 8
  %87 = or i64 %86, %85
  store i64 %87, ptr %5, align 8
  %88 = load i64, ptr %5, align 8
  %89 = xor i64 %88, -1
  %90 = call noundef zeroext i1 @_ZN4llvm16isShiftedMask_64Em(i64 noundef %89)
  br i1 %90, label %92, label %91

91:                                               ; preds = %83
  store i1 false, ptr %4, align 1
  br label %136

92:                                               ; preds = %83
  %93 = load i64, ptr %5, align 8
  %94 = call noundef i32 @_ZN4llvm10countl_oneImEEiT_(i64 noundef %93)
  store i32 %94, ptr %13, align 4
  %95 = load i32, ptr %13, align 4
  %96 = sub i32 64, %95
  store i32 %96, ptr %11, align 4
  %97 = load i32, ptr %13, align 4
  %98 = load i64, ptr %5, align 8
  %99 = call noundef i32 @_ZN4llvm10countr_oneImEEiT_(i64 noundef %98)
  %100 = add i32 %97, %99
  %101 = load i32, ptr %8, align 4
  %102 = sub i32 64, %101
  %103 = sub i32 %100, %102
  store i32 %103, ptr %10, align 4
  br label %104

104:                                              ; preds = %92, %75
  %105 = load i32, ptr %8, align 4
  %106 = load i32, ptr %11, align 4
  %107 = sub i32 %105, %106
  %108 = load i32, ptr %8, align 4
  %109 = sub i32 %108, 1
  %110 = and i32 %107, %109
  store i32 %110, ptr %14, align 4
  %111 = load i32, ptr %8, align 4
  %112 = sub i32 %111, 1
  %113 = xor i32 %112, -1
  %114 = shl i32 %113, 1
  %115 = zext i32 %114 to i64
  store i64 %115, ptr %15, align 8
  %116 = load i32, ptr %10, align 4
  %117 = sub i32 %116, 1
  %118 = zext i32 %117 to i64
  %119 = load i64, ptr %15, align 8
  %120 = or i64 %119, %118
  store i64 %120, ptr %15, align 8
  %121 = load i64, ptr %15, align 8
  %122 = lshr i64 %121, 6
  %123 = and i64 %122, 1
  %124 = xor i64 %123, 1
  %125 = trunc i64 %124 to i32
  store i32 %125, ptr %16, align 4
  %126 = load i32, ptr %16, align 4
  %127 = shl i32 %126, 12
  %128 = load i32, ptr %14, align 4
  %129 = shl i32 %128, 6
  %130 = or i32 %127, %129
  %131 = zext i32 %130 to i64
  %132 = load i64, ptr %15, align 8
  %133 = and i64 %132, 63
  %134 = or i64 %131, %133
  %135 = load ptr, ptr %7, align 8
  store i64 %134, ptr %135, align 8
  store i1 true, ptr %4, align 1
  br label %136

136:                                              ; preds = %104, %91, %38
  %137 = load i1, ptr %4, align 1
  ret i1 %137
}