; Function Attrs: mustprogress nofree norecurse nosync nounwind memory(argmem: write) uwtable
define internal fastcc noundef zeroext i1 @_ZN4llvm10AArch64_AML23processLogicalImmediateEmjRm(i64 noundef %0, i32 noundef %1, ptr nocapture noundef nonnull writeonly align 8 dereferenceable(8) %2) unnamed_addr #10 {
  %4 = add i64 %0, 1
  %or.cond = icmp ult i64 %4, 2
  br i1 %or.cond, label %_ZN4llvm16isShiftedMask_64Em.exit54.thread, label %5

5:                                                ; preds = %3
  %.not = icmp eq i32 %1, 64
  br i1 %.not, label %.preheader, label %6

6:                                                ; preds = %5
  %7 = zext nneg i32 %1 to i64
  %8 = lshr i64 %0, %7
  %.not51 = icmp eq i64 %8, 0
  br i1 %.not51, label %9, label %_ZN4llvm16isShiftedMask_64Em.exit54.thread

9:                                                ; preds = %6
  %10 = sub i32 64, %1
  %11 = zext nneg i32 %10 to i64
  %12 = lshr i64 -1, %11
  %13 = icmp eq i64 %0, %12
  br i1 %13, label %_ZN4llvm16isShiftedMask_64Em.exit54.thread, label %.preheader

.preheader:                                       ; preds = %9, %5
  br label %14

14:                                               ; preds = %.preheader, %23
  %.044 = phi i32 [ %15, %23 ], [ %1, %.preheader ]
  %15 = lshr i32 %.044, 1
  %16 = zext nneg i32 %15 to i64
  %notmask = shl nsw i64 -1, %16
  %17 = xor i64 %notmask, -1
  %18 = lshr i64 %0, %16
  %19 = xor i64 %18, %0
  %20 = and i64 %19, %17
  %.not52 = icmp eq i64 %20, 0
  br i1 %.not52, label %23, label %21

21:                                               ; preds = %14
  %22 = and i32 %.044, -2
  br label %.loopexit

23:                                               ; preds = %14
  %24 = icmp ugt i32 %.044, 5
  br i1 %24, label %14, label %.loopexit, !llvm.loop !47

.loopexit:                                        ; preds = %23, %21
  %.1 = phi i32 [ %22, %21 ], [ %15, %23 ]
  %.neg59 = add i32 %.1, -64
  %25 = sub i32 64, %.1
  %26 = zext nneg i32 %25 to i64
  %27 = lshr i64 -1, %26
  %28 = and i64 %27, %0
  %.not.i = icmp eq i64 %28, 0
  br i1 %.not.i, label %_ZN4llvm16isShiftedMask_64Em.exit.thread, label %_ZN4llvm16isShiftedMask_64Em.exit

_ZN4llvm16isShiftedMask_64Em.exit:                ; preds = %.loopexit
  %29 = add i64 %28, -1
  %30 = or i64 %29, %28
  %31 = add i64 %30, 1
  %32 = and i64 %31, %30
  %33 = icmp eq i64 %32, 0
  br i1 %33, label %34, label %_ZN4llvm16isShiftedMask_64Em.exit.thread

34:                                               ; preds = %_ZN4llvm16isShiftedMask_64Em.exit
  %35 = tail call range(i64 0, 65) i64 @llvm.cttz.i64(i64 %28, i1 true)
  %36 = trunc nuw nsw i64 %35 to i32
  %37 = lshr i64 %28, %35
  %38 = xor i64 %37, -1
  %39 = tail call range(i64 0, 65) i64 @llvm.cttz.i64(i64 %38, i1 false)
  %40 = trunc nuw nsw i64 %39 to i32
  br label %55

_ZN4llvm16isShiftedMask_64Em.exit.thread:         ; preds = %.loopexit, %_ZN4llvm16isShiftedMask_64Em.exit
  %.not55 = xor i64 %0, -1
  %41 = and i64 %27, %.not55
  %.not.i53 = icmp eq i64 %41, 0
  br i1 %.not.i53, label %_ZN4llvm16isShiftedMask_64Em.exit54.thread, label %_ZN4llvm16isShiftedMask_64Em.exit54

_ZN4llvm16isShiftedMask_64Em.exit54:              ; preds = %_ZN4llvm16isShiftedMask_64Em.exit.thread
  %42 = add i64 %41, -1
  %43 = or i64 %42, %41
  %44 = add i64 %43, 1
  %45 = and i64 %44, %43
  %46 = icmp eq i64 %45, 0
  br i1 %46, label %47, label %_ZN4llvm16isShiftedMask_64Em.exit54.thread

47:                                               ; preds = %_ZN4llvm16isShiftedMask_64Em.exit54
  %48 = tail call range(i64 0, 65) i64 @llvm.ctlz.i64(i64 %41, i1 true)
  %49 = trunc nuw nsw i64 %48 to i32
  %50 = sub nuw nsw i32 64, %49
  %51 = tail call range(i64 0, 65) i64 @llvm.cttz.i64(i64 %41, i1 true)
  %52 = trunc nuw nsw i64 %51 to i32
  %53 = add i32 %.neg59, %52
  %54 = add i32 %53, %49
  br label %55

55:                                               ; preds = %47, %34
  %.046 = phi i32 [ %36, %34 ], [ %50, %47 ]
  %.045 = phi i32 [ %40, %34 ], [ %54, %47 ]
  %56 = sub i32 %.1, %.046
  %57 = add i32 %.1, 67108863
  %58 = and i32 %56, %57
  %.neg = mul i32 %.1, -2
  %59 = add i32 %.045, -1
  %60 = or i32 %59, %.neg
  %61 = shl i32 %60, 6
  %62 = and i32 %61, 4096
  %63 = xor i32 %62, 4096
  %64 = shl i32 %58, 6
  %65 = and i32 %60, 63
  %66 = or disjoint i32 %65, %64
  %67 = or i32 %66, %63
  %68 = zext i32 %67 to i64
  store i64 %68, ptr %2, align 8
  br label %_ZN4llvm16isShiftedMask_64Em.exit54.thread

_ZN4llvm16isShiftedMask_64Em.exit54.thread:       ; preds = %_ZN4llvm16isShiftedMask_64Em.exit.thread, %_ZN4llvm16isShiftedMask_64Em.exit54, %3, %6, %9, %55
  %.0 = phi i1 [ true, %55 ], [ false, %9 ], [ false, %6 ], [ false, %3 ], [ false, %_ZN4llvm16isShiftedMask_64Em.exit54 ], [ false, %_ZN4llvm16isShiftedMask_64Em.exit.thread ]
  ret i1 %.0
}